target datalayout = "e-m:e-p270:32:32-p271:32:32-p272:64:64-i64:64-i128:128-f80:128-n8:16:32:64-S128"
target triple = "x86_64-pc-linux-gnu"

%"struct.std::_Rb_tree_key_compare" = type { %"struct.std::less" }
%"struct.std::less" = type { i8 }
%"struct.std::_Rb_tree_header" = type { %"struct.std::_Rb_tree_node_base", i64 }
%"struct.std::_Rb_tree_node_base" = type { i32, ptr, ptr, ptr }
%"struct.pkpy::Type" = type { i16 }
%"class.std::__shared_count" = type { ptr }
%"class.pkpy::VM" = type <{ ptr, ptr, %"struct.pkpy::ManagedHeap", %"struct.pkpy::ValueStack", %"struct.pkpy::CallStack", %"class.std::vector.3", %"struct.pkpy::NameDictImpl", %"class.std::map.8", %struct.anon, ptr, ptr, ptr, ptr, ptr, ptr, ptr, ptr, %"class.std::map.21", %"class.std::set", %"struct.pkpy::ImportContext", ptr, ptr, ptr, %"class.std::map.45", %"class.std::map.50", %"class.std::shared_ptr", ptr, ptr, ptr, ptr, i8, [7 x i8] }>
%"struct.pkpy::ManagedHeap" = type <{ %"class.std::vector", %"class.std::vector", ptr, ptr, ptr, i32, i32, i32, [4 x i8] }>
%"class.std::vector" = type { %"struct.std::_Vector_base" }
%"struct.std::_Vector_base" = type { %"struct.std::_Vector_base<pkpy::PyObject *, std::allocator<pkpy::PyObject *>>::_Vector_impl" }
%"struct.std::_Vector_base<pkpy::PyObject *, std::allocator<pkpy::PyObject *>>::_Vector_impl" = type { %"struct.std::_Vector_base<pkpy::PyObject *, std::allocator<pkpy::PyObject *>>::_Vector_impl_data" }
%"struct.std::_Vector_base<pkpy::PyObject *, std::allocator<pkpy::PyObject *>>::_Vector_impl_data" = type { ptr, ptr, ptr }
%"struct.pkpy::ValueStack" = type { [33024 x ptr], ptr, ptr }
%"struct.pkpy::CallStack" = type <{ ptr, i32, [4 x i8] }>
%"class.std::vector.3" = type { %"struct.std::_Vector_base.4" }
%"struct.std::_Vector_base.4" = type { %"struct.std::_Vector_base<pkpy::PyTypeInfo, std::allocator<pkpy::PyTypeInfo>>::_Vector_impl" }
%"struct.std::_Vector_base<pkpy::PyTypeInfo, std::allocator<pkpy::PyTypeInfo>>::_Vector_impl" = type { %"struct.std::_Vector_base<pkpy::PyTypeInfo, std::allocator<pkpy::PyTypeInfo>>::_Vector_impl_data" }
%"struct.std::_Vector_base<pkpy::PyTypeInfo, std::allocator<pkpy::PyTypeInfo>>::_Vector_impl_data" = type { ptr, ptr, ptr }
%"struct.pkpy::NameDictImpl" = type { %union.anon }
%union.anon = type { %"struct.pkpy::SmallNameDict" }
%"struct.pkpy::SmallNameDict" = type { i8, i16, [8 x %"struct.pkpy::StrName"], [8 x ptr] }
%"struct.pkpy::StrName" = type { i16 }
%"class.std::map.8" = type { %"class.std::_Rb_tree.9" }
%"class.std::_Rb_tree.9" = type { %"struct.std::_Rb_tree<pkpy::StrName, std::pair<const pkpy::StrName, pkpy::Str>, std::_Select1st<std::pair<const pkpy::StrName, pkpy::Str>>, std::less<pkpy::StrName>>::_Rb_tree_impl" }
%"struct.std::_Rb_tree<pkpy::StrName, std::pair<const pkpy::StrName, pkpy::Str>, std::_Select1st<std::pair<const pkpy::StrName, pkpy::Str>>, std::less<pkpy::StrName>>::_Rb_tree_impl" = type { %"struct.std::_Rb_tree_key_compare.13", %"struct.std::_Rb_tree_header" }
%"struct.std::_Rb_tree_key_compare.13" = type { %"struct.std::less.14" }
%"struct.std::less.14" = type { i8 }
%struct.anon = type { ptr, %"class.pkpy::stack_no_copy" }
%"class.pkpy::stack_no_copy" = type { %"class.pkpy::stack" }
%"class.pkpy::stack" = type { %"class.std::vector.16" }
%"class.std::vector.16" = type { %"struct.std::_Vector_base.17" }
%"struct.std::_Vector_base.17" = type { %"struct.std::_Vector_base<pkpy::ArgsView, std::allocator<pkpy::ArgsView>>::_Vector_impl" }
%"struct.std::_Vector_base<pkpy::ArgsView, std::allocator<pkpy::ArgsView>>::_Vector_impl" = type { %"struct.std::_Vector_base<pkpy::ArgsView, std::allocator<pkpy::ArgsView>>::_Vector_impl_data" }
%"struct.std::_Vector_base<pkpy::ArgsView, std::allocator<pkpy::ArgsView>>::_Vector_impl_data" = type { ptr, ptr, ptr }
%"class.std::map.21" = type { %"class.std::_Rb_tree.22" }
%"class.std::_Rb_tree.22" = type { %"struct.std::_Rb_tree<const std::type_index, std::pair<const std::type_index, pkpy::Type>, std::_Select1st<std::pair<const std::type_index, pkpy::Type>>, std::less<const std::type_index>>::_Rb_tree_impl" }
%"struct.std::_Rb_tree<const std::type_index, std::pair<const std::type_index, pkpy::Type>, std::_Select1st<std::pair<const std::type_index, pkpy::Type>>, std::less<const std::type_index>>::_Rb_tree_impl" = type { %"struct.std::_Rb_tree_key_compare.26", %"struct.std::_Rb_tree_header" }
%"struct.std::_Rb_tree_key_compare.26" = type { %"struct.std::less.27" }
%"struct.std::less.27" = type { i8 }
%"class.std::set" = type { %"class.std::_Rb_tree.29" }
%"class.std::_Rb_tree.29" = type { %"struct.std::_Rb_tree<pkpy::PyObject *, pkpy::PyObject *, std::_Identity<pkpy::PyObject *>, std::less<pkpy::PyObject *>>::_Rb_tree_impl" }
%"struct.std::_Rb_tree<pkpy::PyObject *, pkpy::PyObject *, std::_Identity<pkpy::PyObject *>, std::less<pkpy::PyObject *>>::_Rb_tree_impl" = type { %"struct.std::_Rb_tree_key_compare.33", %"struct.std::_Rb_tree_header" }
%"struct.std::_Rb_tree_key_compare.33" = type { %"struct.std::less.34" }
%"struct.std::less.34" = type { i8 }
%"struct.pkpy::ImportContext" = type { %"class.std::vector.36", %"class.std::vector.41" }
%"class.std::vector.36" = type { %"struct.std::_Vector_base.37" }
%"struct.std::_Vector_base.37" = type { %"struct.std::_Vector_base<pkpy::Str, std::allocator<pkpy::Str>>::_Vector_impl" }
%"struct.std::_Vector_base<pkpy::Str, std::allocator<pkpy::Str>>::_Vector_impl" = type { %"struct.std::_Vector_base<pkpy::Str, std::allocator<pkpy::Str>>::_Vector_impl_data" }
%"struct.std::_Vector_base<pkpy::Str, std::allocator<pkpy::Str>>::_Vector_impl_data" = type { ptr, ptr, ptr }
%"class.std::vector.41" = type { %"struct.std::_Bvector_base" }
%"struct.std::_Bvector_base" = type { %"struct.std::_Bvector_base<std::allocator<bool>>::_Bvector_impl" }
%"struct.std::_Bvector_base<std::allocator<bool>>::_Bvector_impl" = type { %"struct.std::_Bvector_base<std::allocator<bool>>::_Bvector_impl_data" }
%"struct.std::_Bvector_base<std::allocator<bool>>::_Bvector_impl_data" = type { %"struct.std::_Bit_iterator", %"struct.std::_Bit_iterator", ptr }
%"struct.std::_Bit_iterator" = type { %"struct.std::_Bit_iterator_base.base", [4 x i8] }
%"struct.std::_Bit_iterator_base.base" = type <{ ptr, i32 }>
%"class.std::map.45" = type { %"class.std::_Rb_tree.46" }
%"class.std::_Rb_tree.46" = type { %"struct.std::_Rb_tree<std::basic_string_view<char>, std::pair<const std::basic_string_view<char>, std::shared_ptr<pkpy::CodeObject>>, std::_Select1st<std::pair<const std::basic_string_view<char>, std::shared_ptr<pkpy::CodeObject>>>, std::less<std::basic_string_view<char>>>::_Rb_tree_impl" }
%"struct.std::_Rb_tree<std::basic_string_view<char>, std::pair<const std::basic_string_view<char>, std::shared_ptr<pkpy::CodeObject>>, std::_Select1st<std::pair<const std::basic_string_view<char>, std::shared_ptr<pkpy::CodeObject>>>, std::less<std::basic_string_view<char>>>::_Rb_tree_impl" = type { %"struct.std::_Rb_tree_key_compare", %"struct.std::_Rb_tree_header" }
%"class.std::map.50" = type { %"class.std::_Rb_tree.51" }
%"class.std::_Rb_tree.51" = type { %"struct.std::_Rb_tree<std::basic_string_view<char>, std::pair<const std::basic_string_view<char>, pkpy::PyObject *>, std::_Select1st<std::pair<const std::basic_string_view<char>, pkpy::PyObject *>>, std::less<std::basic_string_view<char>>>::_Rb_tree_impl" }
%"struct.std::_Rb_tree<std::basic_string_view<char>, std::pair<const std::basic_string_view<char>, pkpy::PyObject *>, std::_Select1st<std::pair<const std::basic_string_view<char>, pkpy::PyObject *>>, std::less<std::basic_string_view<char>>>::_Rb_tree_impl" = type { %"struct.std::_Rb_tree_key_compare", %"struct.std::_Rb_tree_header" }
%"class.std::shared_ptr" = type { %"class.std::__shared_ptr" }
%"class.std::__shared_ptr" = type { ptr, %"class.std::__shared_count" }
%"struct.pkpy::PyTypeInfo" = type { ptr, %"struct.pkpy::Type", ptr, %"struct.pkpy::StrName", i8, %"class.std::vector.72", ptr, ptr, ptr, ptr, ptr, ptr, ptr, ptr, ptr, ptr, ptr, ptr, ptr, ptr, ptr, ptr, ptr, ptr, ptr, ptr, ptr, ptr, ptr, ptr, ptr, ptr, ptr, ptr, ptr, ptr, ptr, ptr, ptr, ptr }
%"class.std::vector.72" = type { %"struct.std::_Vector_base.73" }
%"struct.std::_Vector_base.73" = type { %"struct.std::_Vector_base<pkpy::StrName, std::allocator<pkpy::StrName>>::_Vector_impl" }
%"struct.std::_Vector_base<pkpy::StrName, std::allocator<pkpy::StrName>>::_Vector_impl" = type { %"struct.std::_Vector_base<pkpy::StrName, std::allocator<pkpy::StrName>>::_Vector_impl_data" }
%"struct.std::_Vector_base<pkpy::StrName, std::allocator<pkpy::StrName>>::_Vector_impl_data" = type { ptr, ptr, ptr }

@_ZTIN4pkpy9ExceptionE = linkonce_odr constant { ptr, ptr } { ptr getelementptr inbounds (ptr, ptr @_ZTVN10__cxxabiv117__class_type_infoE, i64 2), ptr @_ZTSN4pkpy9ExceptionE }, comdat, align 8
@_ZTISt9exception = external constant ptr
@_ZN4pkpy2VM12tp_exceptionE = linkonce_odr constant %"struct.pkpy::Type" { i16 15 }, comdat, align 2
@_ZN4pkpy2VM6tp_intE = linkonce_odr constant %"struct.pkpy::Type" { i16 2 }, comdat, align 2

; Function Attrs: mustprogress nounwind uwtable
define linkonce_odr noundef nonnull align 8 dereferenceable(328) ptr @_ZNSt6vectorIN4pkpy10PyTypeInfoESaIS1_EEixEm(ptr noundef nonnull align 8 dereferenceable(24) %0, i64 noundef %1) #5 comdat align 2 {
  %3 = alloca ptr, align 8
  %4 = alloca i64, align 8
  store ptr %0, ptr %3, align 8
  store i64 %1, ptr %4, align 8
  %5 = load ptr, ptr %3, align 8
  %6 = getelementptr inbounds %"struct.std::_Vector_base.4", ptr %5, i32 0, i32 0
  %7 = getelementptr inbounds %"struct.std::_Vector_base<pkpy::PyTypeInfo, std::allocator<pkpy::PyTypeInfo>>::_Vector_impl_data", ptr %6, i32 0, i32 0
  %8 = load ptr, ptr %7, align 8
  %9 = load i64, ptr %4, align 8
  %10 = getelementptr inbounds %"struct.pkpy::PyTypeInfo", ptr %8, i64 %9
  ret ptr %10
}

; Function Attrs: mustprogress nounwind uwtable
define linkonce_odr noundef i32 @_ZNK4pkpy4TypecviEv(ptr noundef nonnull align 2 dereferenceable(2) %0) #5 comdat align 2 {
  %2 = alloca ptr, align 8
  store ptr %0, ptr %2, align 8
  %3 = load ptr, ptr %2, align 8
  %4 = getelementptr inbounds %"struct.pkpy::Type", ptr %3, i32 0, i32 0
  %5 = load i16, ptr %4, align 2
  %6 = sext i16 %5 to i32
  ret i32 %6
}

; Function Attrs: mustprogress nounwind uwtable
define linkonce_odr void @_ZN4pkpy10ValueStack4pushEPNS_8PyObjectE(ptr noundef nonnull align 8 dereferenceable(264208) %0, ptr noundef %1) #5 comdat align 2 {
  %3 = alloca ptr, align 8
  %4 = alloca ptr, align 8
  store ptr %0, ptr %3, align 8
  store ptr %1, ptr %4, align 8
  %5 = load ptr, ptr %3, align 8
  %6 = load ptr, ptr %4, align 8
  %7 = getelementptr inbounds %"struct.pkpy::ValueStack", ptr %5, i32 0, i32 1
  %8 = load ptr, ptr %7, align 8
  %9 = getelementptr inbounds ptr, ptr %8, i32 1
  store ptr %9, ptr %7, align 8
  store ptr %6, ptr %8, align 8
  ret void
}

; Function Attrs: mustprogress uwtable
define linkonce_odr noundef ptr @_ZN4pkpy2VM2_tENS_4TypeE(ptr noundef nonnull align 8 dereferenceable(264913) %0, i16 %1) #4 comdat align 2 {
  %3 = alloca %"struct.pkpy::Type", align 2
  %4 = alloca ptr, align 8
  %5 = getelementptr inbounds %"struct.pkpy::Type", ptr %3, i32 0, i32 0
  store i16 %1, ptr %5, align 2
  store ptr %0, ptr %4, align 8
  %6 = load ptr, ptr %4, align 8
  %7 = getelementptr inbounds %"class.pkpy::VM", ptr %6, i32 0, i32 5
  %8 = call noundef i32 @_ZNK4pkpy4TypecviEv(ptr noundef nonnull align 2 dereferenceable(2) %3)
  %9 = sext i32 %8 to i64
  %10 = call noundef nonnull align 8 dereferenceable(328) ptr @_ZNSt6vectorIN4pkpy10PyTypeInfoESaIS1_EEixEm(ptr noundef nonnull align 8 dereferenceable(24) %7, i64 noundef %9) #3
  %11 = getelementptr inbounds %"struct.pkpy::PyTypeInfo", ptr %10, i32 0, i32 0
  %12 = load ptr, ptr %11, align 8
  ret ptr %12
}

; Function Attrs: mustprogress uwtable
define linkonce_odr noundef ptr @_ZN4pkpy6py_varIRiEEPNS_8PyObjectEPNS_2VMEOT_(ptr noundef %0, ptr noundef nonnull align 4 dereferenceable(4) %1) #4 comdat {
  %3 = alloca ptr, align 8
  %4 = alloca ptr, align 8
  %5 = alloca ptr, align 8
  %6 = alloca i64, align 8
  %7 = alloca %"struct.pkpy::Type", align 2
  store ptr %0, ptr %4, align 8
  store ptr %1, ptr %5, align 8
  %8 = load ptr, ptr %5, align 8
  %9 = load i32, ptr %8, align 4
  %10 = sext i32 %9 to i64
  store i64 %10, ptr %6, align 8
  %11 = load i64, ptr %6, align 8
  %12 = icmp sge i64 %11, 0
  br i1 %12, label %13, label %22

13:                                               ; preds = %2
  %14 = load i64, ptr %6, align 8
  %15 = icmp sle i64 %14, 1152921504606846975
  br i1 %15, label %16, label %22

16:                                               ; preds = %13
  %17 = load i64, ptr %6, align 8
  %18 = shl i64 %17, 2
  %19 = or i64 %18, 2
  store i64 %19, ptr %6, align 8
  %20 = load i64, ptr %6, align 8
  %21 = inttoptr i64 %20 to ptr
  store ptr %21, ptr %3, align 8
  br label %28

22:                                               ; preds = %13, %2
  %23 = load ptr, ptr %4, align 8
  %24 = getelementptr inbounds %"class.pkpy::VM", ptr %23, i32 0, i32 2
  call void @llvm.memcpy.p0.p0.i64(ptr align 2 %7, ptr align 2 @_ZN4pkpy2VM6tp_intE, i64 2, i1 false)
  %25 = getelementptr inbounds %"struct.pkpy::Type", ptr %7, i32 0, i32 0
  %26 = load i16, ptr %25, align 2
  %27 = call noundef ptr @_ZN4pkpy11ManagedHeap5gcnewIlJRlEEEPNS_8PyObjectENS_4TypeEDpOT0_(ptr noundef nonnull align 8 dereferenceable(84) %24, i16 %26, ptr noundef nonnull align 8 dereferenceable(8) %6)
  store ptr %27, ptr %3, align 8
  br label %28

28:                                               ; preds = %22, %16
  %29 = load ptr, ptr %3, align 8
  ret ptr %29
}

; Function Attrs: mustprogress uwtable
define zeroext i1 @pkpy_push_int(ptr noundef %0, i32 noundef %1) #4 personality ptr @__gxx_personality_v0 {
  %3 = alloca i1, align 1
  %4 = alloca ptr, align 8
  %5 = alloca i32, align 4
  %6 = alloca ptr, align 8
  %7 = alloca ptr, align 8
  %8 = alloca ptr, align 8
  %9 = alloca i32, align 4
  %10 = alloca ptr, align 8
  %11 = alloca ptr, align 8
  %12 = alloca %"struct.pkpy::Type", align 2
  %13 = alloca ptr, align 8
  %14 = alloca ptr, align 8
  %15 = alloca ptr, align 8
  store ptr %0, ptr %4, align 8
  store i32 %1, ptr %5, align 4
  %16 = load ptr, ptr %4, align 8
  store ptr %16, ptr %6, align 8
  %17 = load ptr, ptr %6, align 8
  %18 = getelementptr inbounds %"class.pkpy::VM", ptr %17, i32 0, i32 8
  %19 = getelementptr inbounds %struct.anon, ptr %18, i32 0, i32 0
  %20 = load ptr, ptr %19, align 8
  %21 = icmp ne ptr %20, null
  br i1 %21, label %22, label %23

22:                                               ; preds = %2
  store i1 false, ptr %3, align 1
  br label %84

23:                                               ; preds = %2
  %24 = load ptr, ptr %6, align 8
  %25 = invoke noundef ptr @_ZN4pkpy6py_varIRiEEPNS_8PyObjectEPNS_2VMEOT_(ptr noundef %24, ptr noundef nonnull align 4 dereferenceable(4) %5)
          to label %26 unwind label %27

26:                                               ; preds = %23
  store ptr %25, ptr %7, align 8
  br label %80

27:                                               ; preds = %23
  %28 = landingpad { ptr, i32 }
          catch ptr @_ZTIN4pkpy9ExceptionE
          catch ptr @_ZTISt9exception
  %29 = extractvalue { ptr, i32 } %28, 0
  store ptr %29, ptr %8, align 8
  %30 = extractvalue { ptr, i32 } %28, 1
  store i32 %30, ptr %9, align 4
  br label %31

31:                                               ; preds = %27
  %32 = load i32, ptr %9, align 4
  %33 = call i32 @llvm.eh.typeid.for.p0(ptr @_ZTIN4pkpy9ExceptionE) #3
  %34 = icmp eq i32 %32, %33
  br i1 %34, label %35, label %44

35:                                               ; preds = %31
  %36 = load ptr, ptr %8, align 8
  %37 = call ptr @__cxa_begin_catch(ptr %36) #3
  store ptr %37, ptr %15, align 8
  %38 = load ptr, ptr %15, align 8
  %39 = invoke noundef ptr @_ZNK4pkpy9Exception4selfEv(ptr noundef nonnull align 8 dereferenceable(88) %38)
          to label %40 unwind label %75

40:                                               ; preds = %35
  %41 = load ptr, ptr %6, align 8
  %42 = getelementptr inbounds %"class.pkpy::VM", ptr %41, i32 0, i32 8
  %43 = getelementptr inbounds %struct.anon, ptr %42, i32 0, i32 0
  store ptr %39, ptr %43, align 8
  store i1 false, ptr %3, align 1
  call void @__cxa_end_catch()
  br label %84

44:                                               ; preds = %31
  %45 = call i32 @llvm.eh.typeid.for.p0(ptr @_ZTISt9exception) #3
  %46 = icmp eq i32 %32, %45
  br i1 %46, label %47, label %86

47:                                               ; preds = %44
  %48 = load ptr, ptr %8, align 8
  %49 = call ptr @__cxa_begin_catch(ptr %48) #3
  store ptr %49, ptr %10, align 8
  %50 = load ptr, ptr %6, align 8
  call void @llvm.memcpy.p0.p0.i64(ptr align 2 %12, ptr align 2 @_ZN4pkpy2VM12tp_exceptionE, i64 2, i1 false)
  %51 = getelementptr inbounds %"struct.pkpy::Type", ptr %12, i32 0, i32 0
  %52 = load i16, ptr %51, align 2
  %53 = invoke noundef ptr @_ZN4pkpy2VM2_tENS_4TypeE(ptr noundef nonnull align 8 dereferenceable(264913) %50, i16 %52)
          to label %54 unwind label %70

54:                                               ; preds = %47
  store ptr %53, ptr %11, align 8
  %55 = load ptr, ptr %6, align 8
  %56 = load ptr, ptr %11, align 8
  %57 = load ptr, ptr %6, align 8
  %58 = load ptr, ptr %10, align 8
  %59 = load ptr, ptr %58, align 8
  %60 = getelementptr inbounds ptr, ptr %59, i64 2
  %61 = load ptr, ptr %60, align 8
  %62 = call noundef ptr %61(ptr noundef nonnull align 8 dereferenceable(8) %58) #3
  store ptr %62, ptr %14, align 8
  %63 = invoke noundef ptr @_ZN4pkpy6py_varIPKcEEPNS_8PyObjectEPNS_2VMEOT_(ptr noundef %57, ptr noundef nonnull align 8 dereferenceable(8) %14)
          to label %64 unwind label %70

64:                                               ; preds = %54
  store ptr %63, ptr %13, align 8
  %65 = invoke noundef ptr @_ZN4pkpy2VM4callIJPNS_8PyObjectEEEES3_S3_DpOT_(ptr noundef nonnull align 8 dereferenceable(264913) %55, ptr noundef %56, ptr noundef nonnull align 8 dereferenceable(8) %13)
          to label %66 unwind label %70

66:                                               ; preds = %64
  %67 = load ptr, ptr %6, align 8
  %68 = getelementptr inbounds %"class.pkpy::VM", ptr %67, i32 0, i32 8
  %69 = getelementptr inbounds %struct.anon, ptr %68, i32 0, i32 0
  store ptr %65, ptr %69, align 8
  store i1 false, ptr %3, align 1
  call void @__cxa_end_catch()
  br label %84

70:                                               ; preds = %64, %54, %47
  %71 = landingpad { ptr, i32 }
          cleanup
  %72 = extractvalue { ptr, i32 } %71, 0
  store ptr %72, ptr %8, align 8
  %73 = extractvalue { ptr, i32 } %71, 1
  store i32 %73, ptr %9, align 4
  invoke void @__cxa_end_catch()
          to label %74 unwind label %91

74:                                               ; preds = %70
  br label %86

75:                                               ; preds = %35
  %76 = landingpad { ptr, i32 }
          cleanup
  %77 = extractvalue { ptr, i32 } %76, 0
  store ptr %77, ptr %8, align 8
  %78 = extractvalue { ptr, i32 } %76, 1
  store i32 %78, ptr %9, align 4
  invoke void @__cxa_end_catch()
          to label %79 unwind label %91

79:                                               ; preds = %75
  br label %86

80:                                               ; preds = %26
  %81 = load ptr, ptr %6, align 8
  %82 = getelementptr inbounds %"class.pkpy::VM", ptr %81, i32 0, i32 3
  %83 = load ptr, ptr %7, align 8
  call void @_ZN4pkpy10ValueStack4pushEPNS_8PyObjectE(ptr noundef nonnull align 8 dereferenceable(264208) %82, ptr noundef %83)
  store i1 true, ptr %3, align 1
  br label %84

84:                                               ; preds = %80, %66, %40, %22
  %85 = load i1, ptr %3, align 1
  ret i1 %85

86:                                               ; preds = %79, %74, %44
  %87 = load ptr, ptr %8, align 8
  %88 = load i32, ptr %9, align 4
  %89 = insertvalue { ptr, i32 } poison, ptr %87, 0
  %90 = insertvalue { ptr, i32 } %89, i32 %88, 1
  resume { ptr, i32 } %90

91:                                               ; preds = %75, %70
  %92 = landingpad { ptr, i32 }
          catch ptr null
  %93 = extractvalue { ptr, i32 } %92, 0
  call void @__clang_call_terminate(ptr %93) #19
  unreachable
}