; Function Attrs: mustprogress uwtable
define noundef zeroext i1 @pkpy_push_int(ptr noundef %0, i32 noundef %1) local_unnamed_addr #4 personality ptr @__gxx_personality_v0 {
  %3 = alloca i64, align 8
  %4 = alloca ptr, align 8
  %5 = alloca ptr, align 8
  %6 = getelementptr inbounds nuw i8, ptr %0, i64 264488
  %7 = load ptr, ptr %6, align 8
  %.not = icmp eq ptr %7, null
  br i1 %.not, label %8, label %53

8:                                                ; preds = %2
  call void @llvm.lifetime.start.p0(i64 8, ptr nonnull %3)
  %9 = sext i32 %1 to i64
  store i64 %9, ptr %3, align 8
  %10 = icmp sgt i32 %1, -1
  br i1 %10, label %11, label %15

11:                                               ; preds = %8
  %12 = shl nuw nsw i64 %9, 2
  %13 = or disjoint i64 %12, 2
  %14 = inttoptr i64 %13 to ptr
  br label %18

15:                                               ; preds = %8
  %16 = getelementptr inbounds nuw i8, ptr %0, i64 16
  %17 = invoke noundef ptr @_ZN4pkpy11ManagedHeap5gcnewIlJRlEEEPNS_8PyObjectENS_4TypeEDpOT0_(ptr noundef nonnull align 8 dereferenceable(84) %16, i16 2, ptr noundef nonnull align 8 dereferenceable(8) %3)
          to label %18 unwind label %22

18:                                               ; preds = %11, %15
  %.0.i = phi ptr [ %14, %11 ], [ %17, %15 ]
  call void @llvm.lifetime.end.p0(i64 8, ptr nonnull %3)
  %19 = getelementptr inbounds nuw i8, ptr %0, i64 264296
  %20 = load ptr, ptr %19, align 8
  %21 = getelementptr inbounds nuw i8, ptr %20, i64 8
  store ptr %21, ptr %19, align 8
  store ptr %.0.i, ptr %20, align 8
  br label %53

22:                                               ; preds = %15
  %23 = landingpad { ptr, i32 }
          catch ptr @_ZTIN4pkpy9ExceptionE
          catch ptr @_ZTISt9exception
  %24 = extractvalue { ptr, i32 } %23, 0
  %25 = extractvalue { ptr, i32 } %23, 1
  %26 = call i32 @llvm.eh.typeid.for.p0(ptr nonnull @_ZTIN4pkpy9ExceptionE) #32
  %27 = icmp eq i32 %25, %26
  br i1 %27, label %28, label %32

28:                                               ; preds = %22
  %29 = call ptr @__cxa_begin_catch(ptr %24) #32
  %30 = invoke noundef ptr @_ZNK4pkpy9Exception4selfEv(ptr noundef nonnull align 8 dereferenceable(88) %29)
          to label %31 unwind label %51

31:                                               ; preds = %28
  store ptr %30, ptr %6, align 8
  call void @__cxa_end_catch()
  br label %53

32:                                               ; preds = %22
  %33 = call i32 @llvm.eh.typeid.for.p0(ptr nonnull @_ZTISt9exception) #32
  %34 = icmp eq i32 %25, %33
  br i1 %34, label %35, label %54

35:                                               ; preds = %32
  %36 = call ptr @__cxa_begin_catch(ptr %24) #32
  %37 = getelementptr inbounds nuw i8, ptr %0, i64 264328
  %38 = load ptr, ptr %37, align 8
  %39 = getelementptr inbounds nuw i8, ptr %38, i64 4920
  %40 = load ptr, ptr %39, align 8
  %41 = load ptr, ptr %36, align 8
  %42 = getelementptr inbounds nuw i8, ptr %41, i64 16
  %43 = load ptr, ptr %42, align 8
  %44 = call noundef ptr %43(ptr noundef nonnull align 8 dereferenceable(8) %36) #32
  store ptr %44, ptr %5, align 8
  %45 = invoke noundef ptr @_ZN4pkpy6py_varIPKcEEPNS_8PyObjectEPNS_2VMEOT_(ptr noundef nonnull %0, ptr noundef nonnull align 8 dereferenceable(8) %5)
          to label %46 unwind label %49

46:                                               ; preds = %35
  store ptr %45, ptr %4, align 8
  %47 = invoke noundef ptr @_ZN4pkpy2VM4callIJPNS_8PyObjectEEEES3_S3_DpOT_(ptr noundef nonnull align 8 dereferenceable(264913) %0, ptr noundef %40, ptr noundef nonnull align 8 dereferenceable(8) %4)
          to label %48 unwind label %49

48:                                               ; preds = %46
  store ptr %47, ptr %6, align 8
  call void @__cxa_end_catch()
  br label %53

49:                                               ; preds = %46, %35
  %50 = landingpad { ptr, i32 }
          cleanup
  invoke void @__cxa_end_catch()
          to label %54 unwind label %55

51:                                               ; preds = %28
  %52 = landingpad { ptr, i32 }
          cleanup
  invoke void @__cxa_end_catch()
          to label %54 unwind label %55

53:                                               ; preds = %2, %18, %48, %31
  %.0 = phi i1 [ true, %18 ], [ false, %31 ], [ false, %48 ], [ false, %2 ]
  ret i1 %.0

54:                                               ; preds = %51, %49, %32
  %.merged = phi { ptr, i32 } [ %52, %51 ], [ %50, %49 ], [ %23, %32 ]
  resume { ptr, i32 } %.merged

55:                                               ; preds = %51, %49
  %56 = landingpad { ptr, i32 }
          catch ptr null
  %57 = extractvalue { ptr, i32 } %56, 0
  call void @__clang_call_terminate(ptr %57) #29
  unreachable
}